(dp1
S'menu_json'
p2
(dp3
S'type'
p4
S'text'
p5
sS'sortable'
p6
I4
sS'sql'
p7
S'TEXT'
p8
ssS'menu_url'
p9
(dp10
g4
S'string'
p11
sg6
I3
sg7
S'CHAR(512) NOT NULL'
p12
ssS'id'
p13
(dp14
g4
g13
sg6
I1
sg7
S'INTEGER PRIMARY KEY AUTOINCREMENT'
p15
ssS'time_last_update'
p16
(dp17
g4
S'datetime'
p18
sg6
I5
sg7
S'TIMESTAMP'
p19
ssS'name'
p20
(dp21
g4
g11
sg6
I2
sg7
S'CHAR(512) NOT NULL'
p22
ss.